target datalayout = "e-m:e-p270:32:32-p271:32:32-p272:64:64-i64:64-i128:128-f80:128-n8:16:32:64-S128"
target triple = "x86_64-unknown-linux-gnu"

%"class.base::BasicStringPiece" = type { ptr, i64 }
%"class.net::Curve25519KeyExchange" = type { %"class.net::KeyExchange", [32 x i8], [32 x i8] }
%"class.net::KeyExchange" = type { ptr }

; Function Attrs: mustprogress uwtable
define dso_local { ptr, i64 } @_ZNK3net21Curve25519KeyExchange12public_valueB5cxx11Ev(ptr noundef nonnull align 8 dereferenceable(72) %this) unnamed_addr #2 align 2 {
entry:
  %retval = alloca %"class.base::BasicStringPiece", align 8
  %this.addr = alloca ptr, align 8
  store ptr %this, ptr %this.addr, align 8
  %this1 = load ptr, ptr %this.addr, align 8
  %public_key_ = getelementptr inbounds %"class.net::Curve25519KeyExchange", ptr %this1, i32 0, i32 2
  %arraydecay = getelementptr inbounds [32 x i8], ptr %public_key_, i64 0, i64 0
  call void @_ZN4base16BasicStringPieceINSt7__cxx1112basic_stringIcSt11char_traitsIcESaIcEEEEC1EPKcm(ptr noundef nonnull align 8 dereferenceable(16) %retval, ptr noundef %arraydecay, i64 noundef 32)
  %0 = load { ptr, i64 }, ptr %retval, align 8
  ret { ptr, i64 } %0
}